; Function Attrs: mustprogress nofree norecurse nosync nounwind willreturn memory(write, argmem: readwrite, inaccessiblemem: none) uwtable
define hidden void @_ZN11OpenImageIO6v3_1_09ArgOption13add_parameterEiPv(ptr noundef nonnull readonly align 8 captures(none) dereferenceable(360) %0, i32 noundef %1, ptr noundef %2) local_unnamed_addr #11 align 2 {
  %4 = getelementptr inbounds nuw i8, ptr %0, i64 240
  %5 = sext i32 %1 to i64
  %6 = load ptr, ptr %4, align 8, !tbaa !47
  %7 = getelementptr inbounds nuw ptr, ptr %6, i64 %5
  store ptr %2, ptr %7, align 8, !tbaa !94
  %8 = getelementptr inbounds nuw i8, ptr %0, i64 264
  %9 = load ptr, ptr %8, align 8, !tbaa !43
  %10 = getelementptr inbounds nuw %"struct.OpenImageIO::v3_1_0::TypeDesc", ptr %9, i64 %5
  store i64 256, ptr %10, align 4
  ret void
}